; Function Attrs: nounwind uwtable
define hidden void @zim_Fiber_getCurrent(ptr noundef readonly captures(none) %0, ptr noundef writeonly captures(none) %1) #7 {
  %3 = getelementptr inbounds nuw i8, ptr %0, i64 44
  %4 = load i32, ptr %3, align 4, !tbaa !56
  %.not = icmp eq i32 %4, 0
  br i1 %.not, label %6, label %5, !prof !73

5:                                                ; preds = %2
  tail call void @zend_wrong_parameters_none_error() #22
  br label %14

6:                                                ; preds = %2
  %7 = load ptr, ptr getelementptr inbounds nuw (i8, ptr @executor_globals, i64 1776), align 8, !tbaa !70
  %.not9 = icmp eq ptr %7, null
  br i1 %.not9, label %8, label %10

8:                                                ; preds = %6
  %9 = getelementptr inbounds nuw i8, ptr %1, i64 8
  store i32 1, ptr %9, align 8, !tbaa !56
  br label %14

10:                                               ; preds = %6
  %11 = load i32, ptr %7, align 4, !tbaa !105
  %12 = add i32 %11, 1
  store i32 %12, ptr %7, align 4, !tbaa !105
  store ptr %7, ptr %1, align 8, !tbaa !56
  %13 = getelementptr inbounds nuw i8, ptr %1, i64 8
  store i32 776, ptr %13, align 8, !tbaa !56
  br label %14

14:                                               ; preds = %8, %10, %5
  ret void
}